(lp0
S'poi'
p1
aS'bonus'
p2
aS'from_poi_to_this_person'
p3
aS'long_term_incentive'
p4
aS'shared_receipt_with_poi'
p5
aS'total_payments'
p6
aS'total_stock_value'
p7
aS'pct_from_poi'
p8
aS'pct_to_poi'
p9
a.